; Function Attrs: mustprogress nofree norecurse nosync nounwind willreturn memory(read, inaccessiblemem: none) uwtable
define noundef zeroext i1 @_ZNK6casadi11FmuFunction11all_vectorsEv(ptr nocapture noundef nonnull readonly align 8 dereferenceable(1752) %0) local_unnamed_addr #10 align 2 {
  %2 = getelementptr inbounds i8, ptr %0, i64 1312
  %3 = load ptr, ptr %2, align 8
  %4 = getelementptr inbounds i8, ptr %0, i64 1320
  %5 = load ptr, ptr %4, align 8
  %.not17 = icmp eq ptr %3, %5
  br i1 %.not17, label %._crit_edge, label %.lr.ph

.lr.ph:                                           ; preds = %1, %7
  %.sroa.012.018 = phi ptr [ %8, %7 ], [ %3, %1 ]
  %6 = load i32, ptr %.sroa.012.018, align 8
  switch i32 %6, label %.loopexit [
    i32 0, label %7
    i32 2, label %7
    i32 3, label %7
  ]

7:                                                ; preds = %.lr.ph, %.lr.ph, %.lr.ph
  %8 = getelementptr inbounds i8, ptr %.sroa.012.018, i64 16
  %.not = icmp eq ptr %8, %5
  br i1 %.not, label %._crit_edge, label %.lr.ph

._crit_edge:                                      ; preds = %7, %1
  %9 = getelementptr inbounds i8, ptr %0, i64 1336
  %10 = load ptr, ptr %9, align 8
  %11 = getelementptr inbounds i8, ptr %0, i64 1344
  %12 = load ptr, ptr %11, align 8
  %.not1519 = icmp eq ptr %10, %12
  br i1 %.not1519, label %.loopexit, label %.lr.ph22

.lr.ph22:                                         ; preds = %._crit_edge, %14
  %.sroa.08.020 = phi ptr [ %15, %14 ], [ %10, %._crit_edge ]
  %13 = load i32, ptr %.sroa.08.020, align 8
  switch i32 %13, label %.loopexit [
    i32 0, label %14
    i32 2, label %14
  ]

14:                                               ; preds = %.lr.ph22, %.lr.ph22
  %15 = getelementptr inbounds i8, ptr %.sroa.08.020, i64 56
  %.not15 = icmp eq ptr %15, %12
  br i1 %.not15, label %.loopexit, label %.lr.ph22

.loopexit:                                        ; preds = %.lr.ph, %.lr.ph22, %14, %._crit_edge
  %.0 = phi i1 [ true, %._crit_edge ], [ false, %.lr.ph22 ], [ true, %14 ], [ false, %.lr.ph ]
  ret i1 %.0
}